target datalayout = "e-m:e-p270:32:32-p271:32:32-p272:64:64-i64:64-i128:128-f80:128-n8:16:32:64-S128"
target triple = "x86_64-pc-linux-gnu"

%struct.H5T_t = type { %struct.H5O_shared_t, ptr, %struct.H5O_loc_t, %struct.H5G_name_t, ptr }
%struct.H5O_shared_t = type { i32, ptr, i32, %union.anon }
%union.anon = type { %struct.H5O_mesg_loc_t }
%struct.H5O_mesg_loc_t = type { i32, i64 }
%struct.H5O_loc_t = type { ptr, i64, i8 }
%struct.H5G_name_t = type { ptr, ptr, i32 }
%struct.H5VL_datatype_get_args_t = type { i32, %union.anon.6 }
%union.anon.6 = type { %struct.anon.8 }
%struct.anon.8 = type { ptr, i64 }
%struct.anon.7 = type { ptr }

@H5_libterm_g = external global i8, align 1
@.str = private unnamed_addr constant [103 x i8] c"generated/home/dtcxzyw/WorkSpace/Projects/compilers/llvm-opt-benchmark/bench/hdf5/hdf5/src/H5Tcommit.c\00", align 1
@H5E_FUNC_g = external global i64, align 8
@H5E_CANTINIT_g = external global i64, align 8
@H5T_init_g = external global i8, align 1
@.str.2 = private unnamed_addr constant [32 x i8] c"interface initialization failed\00", align 1
@H5E_DATATYPE_g = external global i64, align 8
@H5P_LST_DATASET_XFER_ID_g = external global i64, align 8
@H5E_RESOURCE_g = external global i64, align 8
@H5E_NOSPACE_g = external global i64, align 8
@.str.71 = private unnamed_addr constant [34 x i8] c"can't allocate space for datatype\00", align 1
@__func__.H5T_construct_datatype = private unnamed_addr constant [23 x i8] c"H5T_construct_datatype\00", align 1
@.str.76 = private unnamed_addr constant [39 x i8] c"unable to get datatype serialized size\00", align 1
@.str.77 = private unnamed_addr constant [34 x i8] c"unable to get serialized datatype\00", align 1
@.str.78 = private unnamed_addr constant [22 x i8] c"can't decode datatype\00", align 1

; Function Attrs: nounwind uwtable
define ptr @H5T_construct_datatype(ptr noundef %0) #0 {
  %2 = alloca ptr, align 8
  %3 = alloca ptr, align 8
  %4 = alloca %struct.H5VL_datatype_get_args_t, align 8
  %5 = alloca i64, align 8
  %6 = alloca ptr, align 8
  %7 = alloca ptr, align 8
  %8 = alloca i8, align 1
  store ptr %0, ptr %2, align 8, !tbaa !19
  call void @llvm.lifetime.start.p0(i64 8, ptr %3) #7
  store ptr null, ptr %3, align 8, !tbaa !21
  call void @llvm.lifetime.start.p0(i64 24, ptr %4) #7
  call void @llvm.lifetime.start.p0(i64 8, ptr %5) #7
  store i64 0, ptr %5, align 8, !tbaa !3
  call void @llvm.lifetime.start.p0(i64 8, ptr %6) #7
  store ptr null, ptr %6, align 8, !tbaa !16
  call void @llvm.lifetime.start.p0(i64 8, ptr %7) #7
  store ptr null, ptr %7, align 8, !tbaa !21
  call void @llvm.lifetime.start.p0(i64 1, ptr %8) #7
  store i8 0, ptr %8, align 1, !tbaa !12
  %9 = load i8, ptr @H5T_init_g, align 1, !tbaa !12, !range !14, !noundef !15
  %10 = trunc i8 %9 to i1
  br i1 %10, label %15, label %11

11:                                               ; preds = %1
  %12 = load i8, ptr @H5_libterm_g, align 1, !tbaa !12, !range !14, !noundef !15
  %13 = trunc i8 %12 to i1
  %14 = xor i1 %13, true
  br label %15

15:                                               ; preds = %11, %1
  %16 = phi i1 [ false, %1 ], [ %14, %11 ]
  %17 = xor i1 %16, true
  %18 = xor i1 %17, true
  %19 = zext i1 %18 to i32
  %20 = sext i32 %19 to i64
  %21 = call i64 @llvm.expect.i64(i64 %20, i64 0)
  %22 = icmp ne i64 %21, 0
  br i1 %22, label %23, label %46

23:                                               ; preds = %15
  store i8 1, ptr @H5T_init_g, align 1, !tbaa !12
  %24 = call i32 @H5T__init_package()
  %25 = icmp slt i32 %24, 0
  br i1 %25, label %26, label %45

26:                                               ; preds = %23
  store i8 0, ptr @H5T_init_g, align 1, !tbaa !12
  br label %27

27:                                               ; preds = %26
  br label %28

28:                                               ; preds = %27
  br label %29

29:                                               ; preds = %28
  %30 = load i64, ptr @H5E_FUNC_g, align 8, !tbaa !3
  %31 = load i64, ptr @H5E_CANTINIT_g, align 8, !tbaa !3
  %32 = call i32 (ptr, ptr, i32, i64, i64, ptr, ...) @H5E_printf_stack(ptr noundef @.str, ptr noundef @__func__.H5T_construct_datatype, i32 noundef 1220, i64 noundef %30, i64 noundef %31, ptr noundef @.str.2)
  br label %33

33:                                               ; preds = %29
  br label %34

34:                                               ; preds = %33
  store i8 1, ptr %8, align 1, !tbaa !12
  %35 = load i8, ptr %8, align 1, !tbaa !12, !range !14, !noundef !15
  %36 = trunc i8 %35 to i1
  %37 = zext i1 %36 to i8
  store i8 %37, ptr %8, align 1, !tbaa !12
  br label %38

38:                                               ; preds = %34
  br label %39

39:                                               ; preds = %38
  br label %40

40:                                               ; preds = %39
  store ptr null, ptr %7, align 8, !tbaa !21
  br label %171

41:                                               ; No predecessors!
  br label %42

42:                                               ; preds = %41
  br label %43

43:                                               ; preds = %42
  br label %44

44:                                               ; preds = %43
  br label %45

45:                                               ; preds = %44, %23
  br label %46

46:                                               ; preds = %45, %15
  %47 = load i8, ptr @H5T_init_g, align 1, !tbaa !12, !range !14, !noundef !15
  %48 = trunc i8 %47 to i1
  br i1 %48, label %53, label %49

49:                                               ; preds = %46
  %50 = load i8, ptr @H5_libterm_g, align 1, !tbaa !12, !range !14, !noundef !15
  %51 = trunc i8 %50 to i1
  %52 = xor i1 %51, true
  br label %53

53:                                               ; preds = %49, %46
  %54 = phi i1 [ true, %46 ], [ %52, %49 ]
  %55 = xor i1 %54, true
  %56 = xor i1 %55, true
  %57 = zext i1 %56 to i32
  %58 = sext i32 %57 to i64
  %59 = call i64 @llvm.expect.i64(i64 %58, i64 1)
  %60 = icmp ne i64 %59, 0
  br i1 %60, label %61, label %178

61:                                               ; preds = %53
  %62 = getelementptr inbounds nuw %struct.H5VL_datatype_get_args_t, ptr %4, i32 0, i32 0
  store i32 0, ptr %62, align 8, !tbaa !61
  %63 = getelementptr inbounds nuw %struct.H5VL_datatype_get_args_t, ptr %4, i32 0, i32 1
  %64 = getelementptr inbounds nuw %struct.anon.7, ptr %63, i32 0, i32 0
  store ptr %5, ptr %64, align 8, !tbaa !23
  %65 = load ptr, ptr %2, align 8, !tbaa !19
  %66 = load i64, ptr @H5P_LST_DATASET_XFER_ID_g, align 8, !tbaa !3
  %67 = call i32 @H5VL_datatype_get(ptr noundef %65, ptr noundef %4, i64 noundef %66, ptr noundef null)
  %68 = icmp slt i32 %67, 0
  br i1 %68, label %69, label %88

69:                                               ; preds = %61
  br label %70

70:                                               ; preds = %69
  br label %71

71:                                               ; preds = %70
  br label %72

72:                                               ; preds = %71
  %73 = load i64, ptr @H5E_DATATYPE_g, align 8, !tbaa !3
  %74 = load i64, ptr @H5E_CANTINIT_g, align 8, !tbaa !3
  %75 = call i32 (ptr, ptr, i32, i64, i64, ptr, ...) @H5E_printf_stack(ptr noundef @.str, ptr noundef @__func__.H5T_construct_datatype, i32 noundef 1228, i64 noundef %73, i64 noundef %74, ptr noundef @.str.76)
  br label %76

76:                                               ; preds = %72
  br label %77

77:                                               ; preds = %76
  store i8 1, ptr %8, align 1, !tbaa !12
  %78 = load i8, ptr %8, align 1, !tbaa !12, !range !14, !noundef !15
  %79 = trunc i8 %78 to i1
  %80 = zext i1 %79 to i8
  store i8 %80, ptr %8, align 1, !tbaa !12
  br label %81

81:                                               ; preds = %77
  br label %82

82:                                               ; preds = %81
  br label %83

83:                                               ; preds = %82
  store ptr null, ptr %7, align 8, !tbaa !21
  br label %171

84:                                               ; No predecessors!
  br label %85

85:                                               ; preds = %84
  br label %86

86:                                               ; preds = %85
  br label %87

87:                                               ; preds = %86
  br label %88

88:                                               ; preds = %87, %61
  %89 = load i64, ptr %5, align 8, !tbaa !3
  %90 = call noalias ptr @calloc(i64 noundef 1, i64 noundef %89) #8
  store ptr %90, ptr %6, align 8, !tbaa !16
  %91 = icmp eq ptr null, %90
  br i1 %91, label %92, label %111

92:                                               ; preds = %88
  br label %93

93:                                               ; preds = %92
  br label %94

94:                                               ; preds = %93
  br label %95

95:                                               ; preds = %94
  %96 = load i64, ptr @H5E_RESOURCE_g, align 8, !tbaa !3
  %97 = load i64, ptr @H5E_NOSPACE_g, align 8, !tbaa !3
  %98 = call i32 (ptr, ptr, i32, i64, i64, ptr, ...) @H5E_printf_stack(ptr noundef @.str, ptr noundef @__func__.H5T_construct_datatype, i32 noundef 1232, i64 noundef %96, i64 noundef %97, ptr noundef @.str.71)
  br label %99

99:                                               ; preds = %95
  br label %100

100:                                              ; preds = %99
  store i8 1, ptr %8, align 1, !tbaa !12
  %101 = load i8, ptr %8, align 1, !tbaa !12, !range !14, !noundef !15
  %102 = trunc i8 %101 to i1
  %103 = zext i1 %102 to i8
  store i8 %103, ptr %8, align 1, !tbaa !12
  br label %104

104:                                              ; preds = %100
  br label %105

105:                                              ; preds = %104
  br label %106

106:                                              ; preds = %105
  store ptr null, ptr %7, align 8, !tbaa !21
  br label %171

107:                                              ; No predecessors!
  br label %108

108:                                              ; preds = %107
  br label %109

109:                                              ; preds = %108
  br label %110

110:                                              ; preds = %109
  br label %111

111:                                              ; preds = %110, %88
  %112 = getelementptr inbounds nuw %struct.H5VL_datatype_get_args_t, ptr %4, i32 0, i32 0
  store i32 1, ptr %112, align 8, !tbaa !61
  %113 = load ptr, ptr %6, align 8, !tbaa !16
  %114 = getelementptr inbounds nuw %struct.H5VL_datatype_get_args_t, ptr %4, i32 0, i32 1
  %115 = getelementptr inbounds nuw %struct.anon.8, ptr %114, i32 0, i32 0
  store ptr %113, ptr %115, align 8, !tbaa !23
  %116 = load i64, ptr %5, align 8, !tbaa !3
  %117 = getelementptr inbounds nuw %struct.H5VL_datatype_get_args_t, ptr %4, i32 0, i32 1
  %118 = getelementptr inbounds nuw %struct.anon.8, ptr %117, i32 0, i32 1
  store i64 %116, ptr %118, align 8, !tbaa !23
  %119 = load ptr, ptr %2, align 8, !tbaa !19
  %120 = load i64, ptr @H5P_LST_DATASET_XFER_ID_g, align 8, !tbaa !3
  %121 = call i32 @H5VL_datatype_get(ptr noundef %119, ptr noundef %4, i64 noundef %120, ptr noundef null)
  %122 = icmp slt i32 %121, 0
  br i1 %122, label %123, label %142

123:                                              ; preds = %111
  br label %124

124:                                              ; preds = %123
  br label %125

125:                                              ; preds = %124
  br label %126

126:                                              ; preds = %125
  %127 = load i64, ptr @H5E_DATATYPE_g, align 8, !tbaa !3
  %128 = load i64, ptr @H5E_CANTINIT_g, align 8, !tbaa !3
  %129 = call i32 (ptr, ptr, i32, i64, i64, ptr, ...) @H5E_printf_stack(ptr noundef @.str, ptr noundef @__func__.H5T_construct_datatype, i32 noundef 1241, i64 noundef %127, i64 noundef %128, ptr noundef @.str.77)
  br label %130

130:                                              ; preds = %126
  br label %131

131:                                              ; preds = %130
  store i8 1, ptr %8, align 1, !tbaa !12
  %132 = load i8, ptr %8, align 1, !tbaa !12, !range !14, !noundef !15
  %133 = trunc i8 %132 to i1
  %134 = zext i1 %133 to i8
  store i8 %134, ptr %8, align 1, !tbaa !12
  br label %135

135:                                              ; preds = %131
  br label %136

136:                                              ; preds = %135
  br label %137

137:                                              ; preds = %136
  store ptr null, ptr %7, align 8, !tbaa !21
  br label %171

138:                                              ; No predecessors!
  br label %139

139:                                              ; preds = %138
  br label %140

140:                                              ; preds = %139
  br label %141

141:                                              ; preds = %140
  br label %142

142:                                              ; preds = %141, %111
  %143 = load i64, ptr %5, align 8, !tbaa !3
  %144 = load ptr, ptr %6, align 8, !tbaa !16
  %145 = call ptr @H5T_decode(i64 noundef %143, ptr noundef %144)
  store ptr %145, ptr %3, align 8, !tbaa !21
  %146 = icmp eq ptr null, %145
  br i1 %146, label %147, label %166

147:                                              ; preds = %142
  br label %148

148:                                              ; preds = %147
  br label %149

149:                                              ; preds = %148
  br label %150

150:                                              ; preds = %149
  %151 = load i64, ptr @H5E_DATATYPE_g, align 8, !tbaa !3
  %152 = load i64, ptr @H5E_CANTINIT_g, align 8, !tbaa !3
  %153 = call i32 (ptr, ptr, i32, i64, i64, ptr, ...) @H5E_printf_stack(ptr noundef @.str, ptr noundef @__func__.H5T_construct_datatype, i32 noundef 1245, i64 noundef %151, i64 noundef %152, ptr noundef @.str.78)
  br label %154

154:                                              ; preds = %150
  br label %155

155:                                              ; preds = %154
  store i8 1, ptr %8, align 1, !tbaa !12
  %156 = load i8, ptr %8, align 1, !tbaa !12, !range !14, !noundef !15
  %157 = trunc i8 %156 to i1
  %158 = zext i1 %157 to i8
  store i8 %158, ptr %8, align 1, !tbaa !12
  br label %159

159:                                              ; preds = %155
  br label %160

160:                                              ; preds = %159
  br label %161

161:                                              ; preds = %160
  store ptr null, ptr %7, align 8, !tbaa !21
  br label %171

162:                                              ; No predecessors!
  br label %163

163:                                              ; preds = %162
  br label %164

164:                                              ; preds = %163
  br label %165

165:                                              ; preds = %164
  br label %166

166:                                              ; preds = %165, %142
  %167 = load ptr, ptr %2, align 8, !tbaa !19
  %168 = load ptr, ptr %3, align 8, !tbaa !21
  %169 = getelementptr inbounds nuw %struct.H5T_t, ptr %168, i32 0, i32 4
  store ptr %167, ptr %169, align 8, !tbaa !24
  %170 = load ptr, ptr %3, align 8, !tbaa !21
  store ptr %170, ptr %7, align 8, !tbaa !21
  br label %171

171:                                              ; preds = %166, %161, %137, %106, %83, %40
  %172 = load ptr, ptr %6, align 8, !tbaa !16
  %173 = icmp ne ptr %172, null
  br i1 %173, label %174, label %177

174:                                              ; preds = %171
  %175 = load ptr, ptr %6, align 8, !tbaa !16
  %176 = call ptr @H5MM_xfree(ptr noundef %175)
  store ptr %176, ptr %6, align 8, !tbaa !16
  br label %177

177:                                              ; preds = %174, %171
  br label %178

178:                                              ; preds = %177, %53
  %179 = load ptr, ptr %7, align 8, !tbaa !21
  call void @llvm.lifetime.end.p0(i64 1, ptr %8) #7
  call void @llvm.lifetime.end.p0(i64 8, ptr %7) #7
  call void @llvm.lifetime.end.p0(i64 8, ptr %6) #7
  call void @llvm.lifetime.end.p0(i64 8, ptr %5) #7
  call void @llvm.lifetime.end.p0(i64 24, ptr %4) #7
  call void @llvm.lifetime.end.p0(i64 8, ptr %3) #7
  ret ptr %179
}