; Function Attrs: nounwind uwtable
define ptr @H5T_construct_datatype(ptr noundef %0) local_unnamed_addr #0 {
  %2 = alloca %struct.H5VL_datatype_get_args_t, align 8
  %3 = alloca i64, align 8
  call void @llvm.lifetime.start.p0(i64 24, ptr nonnull %2) #9
  call void @llvm.lifetime.start.p0(i64 8, ptr nonnull %3) #9
  store i64 0, ptr %3, align 8, !tbaa !11
  %4 = load i8, ptr @H5T_init_g, align 1, !tbaa !3, !range !7, !noundef !8
  %5 = trunc nuw i8 %4 to i1
  %6 = load i8, ptr @H5_libterm_g, align 1, !range !7
  %7 = trunc nuw i8 %6 to i1
  %8 = select i1 %5, i1 true, i1 %7
  br i1 %8, label %16, label %9, !prof !9

9:                                                ; preds = %1
  store i8 1, ptr @H5T_init_g, align 1, !tbaa !3
  %10 = tail call i32 @H5T__init_package() #9
  %11 = icmp slt i32 %10, 0
  br i1 %11, label %12, label %._crit_edge

._crit_edge:                                      ; preds = %9
  %.pre = load i8, ptr @H5T_init_g, align 1, !tbaa !3, !range !7
  %.pre21 = load i8, ptr @H5_libterm_g, align 1, !range !7
  %.pre22 = trunc nuw i8 %.pre to i1
  %.pre23 = trunc nuw i8 %.pre21 to i1
  br label %16

12:                                               ; preds = %9
  store i8 0, ptr @H5T_init_g, align 1, !tbaa !3
  %13 = load i64, ptr @H5E_FUNC_g, align 8, !tbaa !11
  %14 = load i64, ptr @H5E_CANTINIT_g, align 8, !tbaa !11
  %15 = tail call i32 (ptr, ptr, i32, i64, i64, ptr, ...) @H5E_printf_stack(ptr noundef nonnull @.str, ptr noundef nonnull @__func__.H5T_construct_datatype, i32 noundef 1220, i64 noundef %13, i64 noundef %14, ptr noundef nonnull @.str.2) #9
  br label %.thread

16:                                               ; preds = %._crit_edge, %1
  %.pre-phi24 = phi i1 [ %.pre23, %._crit_edge ], [ %7, %1 ]
  %.pre-phi = phi i1 [ %.pre22, %._crit_edge ], [ %5, %1 ]
  %17 = xor i1 %.pre-phi24, true
  %18 = select i1 %.pre-phi, i1 true, i1 %17
  br i1 %18, label %19, label %.thread, !prof !9

19:                                               ; preds = %16
  store i32 0, ptr %2, align 8, !tbaa !51
  %20 = getelementptr inbounds nuw i8, ptr %2, i64 8
  store ptr %3, ptr %20, align 8, !tbaa !18
  %21 = load i64, ptr @H5P_LST_DATASET_XFER_ID_g, align 8, !tbaa !11
  %22 = call i32 @H5VL_datatype_get(ptr noundef %0, ptr noundef nonnull %2, i64 noundef %21, ptr noundef null) #9
  %23 = icmp slt i32 %22, 0
  br i1 %23, label %24, label %28

24:                                               ; preds = %19
  %25 = load i64, ptr @H5E_DATATYPE_g, align 8, !tbaa !11
  %26 = load i64, ptr @H5E_CANTINIT_g, align 8, !tbaa !11
  %27 = call i32 (ptr, ptr, i32, i64, i64, ptr, ...) @H5E_printf_stack(ptr noundef nonnull @.str, ptr noundef nonnull @__func__.H5T_construct_datatype, i32 noundef 1228, i64 noundef %25, i64 noundef %26, ptr noundef nonnull @.str.76) #9
  br label %.thread

28:                                               ; preds = %19
  %29 = load i64, ptr %3, align 8, !tbaa !11
  %30 = call noalias ptr @calloc(i64 noundef 1, i64 noundef %29) #10
  %31 = icmp eq ptr %30, null
  br i1 %31, label %32, label %36

32:                                               ; preds = %28
  %33 = load i64, ptr @H5E_RESOURCE_g, align 8, !tbaa !11
  %34 = load i64, ptr @H5E_NOSPACE_g, align 8, !tbaa !11
  %35 = call i32 (ptr, ptr, i32, i64, i64, ptr, ...) @H5E_printf_stack(ptr noundef nonnull @.str, ptr noundef nonnull @__func__.H5T_construct_datatype, i32 noundef 1232, i64 noundef %33, i64 noundef %34, ptr noundef nonnull @.str.71) #9
  br label %.thread

36:                                               ; preds = %28
  store i32 1, ptr %2, align 8, !tbaa !51
  store ptr %30, ptr %20, align 8, !tbaa !18
  %37 = getelementptr inbounds nuw i8, ptr %2, i64 16
  store i64 %29, ptr %37, align 8, !tbaa !18
  %38 = load i64, ptr @H5P_LST_DATASET_XFER_ID_g, align 8, !tbaa !11
  %39 = call i32 @H5VL_datatype_get(ptr noundef %0, ptr noundef nonnull %2, i64 noundef %38, ptr noundef null) #9
  %40 = icmp slt i32 %39, 0
  br i1 %40, label %41, label %45

41:                                               ; preds = %36
  %42 = load i64, ptr @H5E_DATATYPE_g, align 8, !tbaa !11
  %43 = load i64, ptr @H5E_CANTINIT_g, align 8, !tbaa !11
  %44 = call i32 (ptr, ptr, i32, i64, i64, ptr, ...) @H5E_printf_stack(ptr noundef nonnull @.str, ptr noundef nonnull @__func__.H5T_construct_datatype, i32 noundef 1241, i64 noundef %42, i64 noundef %43, ptr noundef nonnull @.str.77) #9
  br label %55

45:                                               ; preds = %36
  %46 = load i64, ptr %3, align 8, !tbaa !11
  %47 = call ptr @H5T_decode(i64 noundef %46, ptr noundef nonnull %30) #9
  %48 = icmp eq ptr %47, null
  br i1 %48, label %49, label %53

49:                                               ; preds = %45
  %50 = load i64, ptr @H5E_DATATYPE_g, align 8, !tbaa !11
  %51 = load i64, ptr @H5E_CANTINIT_g, align 8, !tbaa !11
  %52 = call i32 (ptr, ptr, i32, i64, i64, ptr, ...) @H5E_printf_stack(ptr noundef nonnull @.str, ptr noundef nonnull @__func__.H5T_construct_datatype, i32 noundef 1245, i64 noundef %50, i64 noundef %51, ptr noundef nonnull @.str.78) #9
  br label %55

53:                                               ; preds = %45
  %54 = getelementptr inbounds nuw i8, ptr %47, i64 96
  store ptr %0, ptr %54, align 8, !tbaa !19
  br label %55

55:                                               ; preds = %41, %49, %53
  %.0 = phi ptr [ null, %41 ], [ null, %49 ], [ %47, %53 ]
  %56 = call ptr @H5MM_xfree(ptr noundef nonnull %30) #9
  br label %.thread

.thread:                                          ; preds = %32, %24, %12, %55, %16
  %.1 = phi ptr [ %.0, %55 ], [ null, %16 ], [ null, %12 ], [ null, %24 ], [ null, %32 ]
  call void @llvm.lifetime.end.p0(i64 8, ptr nonnull %3) #9
  call void @llvm.lifetime.end.p0(i64 24, ptr nonnull %2) #9
  ret ptr %.1
}